Certificate:
    Data:
        Version: 1 (0x0)
        Serial Number: 1 (0x1)
    Signature Algorithm: sha512WithRSAEncryption
        Issuer: C=PL, ST=Mazovian, L=Warsaw, O=Daczko Cert, CN=Daczko Cert
        Validity
            Not Before: Jan 13 23:44:28 2021 GMT
            Not After : Jan 13 23:44:28 2022 GMT
        Subject: C=PL, ST=Mazovian, L=Warsaw, O=NoteMe Sp. z o.o., CN=NoteMe
        Subject Public Key Info:
            Public Key Algorithm: rsaEncryption
                Public-Key: (2048 bit)
                Modulus:
                    00:e3:50:70:36:f8:cf:c9:eb:b7:6c:6f:5a:94:4f:
                    1e:0f:8d:0c:e0:8a:dd:aa:9d:14:7a:fe:a9:37:40:
                    ac:2c:e1:92:d8:a0:7f:83:dc:e3:6d:85:0a:6b:ff:
                    f7:3a:bc:11:e2:40:d9:20:4c:65:63:95:ef:e2:e0:
                    b0:df:85:71:7f:a4:d0:9a:aa:a2:20:2f:a2:5d:2f:
                    f0:80:d9:5f:ae:9c:e0:79:b6:ac:20:43:96:e7:73:
                    a3:b4:a9:b6:03:f9:2e:30:fa:99:87:d7:9b:62:ce:
                    96:36:22:a0:53:42:ab:06:06:e0:84:8e:c4:ff:d5:
                    12:60:cb:bc:30:6a:59:f9:00:d0:c7:0e:5b:a5:52:
                    45:f0:a7:e9:1c:76:92:63:07:db:b6:e6:d0:47:44:
                    ab:3c:0b:a6:e3:cf:22:d5:20:43:7f:08:52:cd:73:
                    21:3c:18:d7:dc:fc:4c:51:f0:ca:ae:fb:7b:02:12:
                    4f:b4:00:12:30:77:b3:e3:0c:ab:f7:a7:11:a8:73:
                    03:54:6c:7e:c8:94:49:89:6f:09:c7:56:2f:b3:39:
                    1f:e9:e9:b7:a8:92:bc:81:eb:c6:8d:9f:96:46:4e:
                    38:99:58:c9:b9:48:25:5b:81:fd:25:e4:bd:49:f4:
                    7c:fe:b6:c4:87:1a:af:70:03:2c:cf:95:64:39:80:
                    0d:e1
                Exponent: 65537 (0x10001)
    Signature Algorithm: sha512WithRSAEncryption
         ba:fb:76:a6:7d:f9:ba:c7:81:aa:28:fd:27:16:d0:9d:f7:46:
         26:49:ec:f3:52:3a:e5:1f:85:55:68:11:cb:f8:d6:d4:e1:ce:
         92:cc:d4:1e:e8:0f:05:9b:f4:af:77:f7:ee:6d:d6:68:d6:d1:
         f7:b5:d4:db:eb:8f:15:69:84:f5:f0:d9:54:cf:9e:63:be:d9:
         27:bd:ad:b5:9b:d9:7c:91:e5:7d:2f:f3:c0:c3:fd:07:e6:34:
         7e:d6:cb:5e:93:10:c3:6b:08:1a:9a:82:db:52:5a:7b:3d:8d:
         20:8b:43:f1:66:e3:05:d6:28:af:f2:9a:6a:32:ff:c4:d7:ec:
         0a:6c:7f:7a:05:26:88:a6:0b:ff:ed:47:5e:81:57:e2:fb:2d:
         25:e0:e6:7f:c9:49:15:d4:83:32:ee:a6:36:b2:45:b6:f0:3f:
         47:ff:3a:35:3a:da:00:48:05:99:37:b3:8b:1d:8b:59:51:81:
         12:17:23:0a:d8:33:24:2b:58:40:70:06:86:7d:1c:5c:af:5e:
         60:7e:7c:9b:b6:42:76:02:f2:4c:0c:e2:de:8a:1a:dc:d0:c4:
         d9:73:85:63:9b:ca:47:8c:2d:1a:45:de:53:5c:36:fd:1b:6d:
         26:62:0c:2e:5c:78:66:64:19:0f:66:1d:4b:27:bd:7c:8a:20:
         6e:5a:55:55:df:a7:94:f6:0d:4a:75:ed:cf:76:68:97:05:68:
         12:eb:45:6b:7a:25:c1:0d:1e:13:a6:e4:c3:82:86:0c:e2:20:
         af:d2:2c:eb:c9:5e:5a:4f:c4:08:6a:b8:14:6a:a9:67:1f:e8:
         56:4e:b1:02:17:c0:24:e5:44:54:2e:54:c5:03:a3:eb:36:b9:
         ce:e5:33:bd:48:9a:04:bc:48:1b:ab:97:18:a8:2a:fb:39:4b:
         96:b1:05:c1:9a:97:3f:a4:45:44:84:2f:8e:d7:8a:6e:ef:6e:
         0b:c7:c3:19:27:cf:1e:6e:f0:da:ec:91:8a:56:08:4e:5d:a1:
         a6:3e:47:20:8e:f6:db:0c:d5:93:3e:04:0c:21:b9:70:d2:a1:
         9b:22:5f:67:2f:e4:bf:f0:58:8f:de:02:b4:8a:30:6a:39:1d:
         80:de:b4:35:81:18:d7:91:b0:b0:55:a2:d4:7e:2d:4a:95:19:
         f0:2e:80:20:aa:cd:18:5f:8e:3d:2c:76:d8:6a:ff:11:2d:7b:
         f2:5a:33:e0:8e:09:33:ea:f7:a7:e5:11:76:a6:09:a1:9d:59:
         cf:61:e5:d7:70:de:10:ec:29:1d:4c:16:16:30:ce:99:09:e4:
         be:cb:f8:9b:dd:64:5d:1c:1b:4a:89:59:21:61:62:e6:71:56:
         03:f0:04:e0:84:92:f9:82
-----BEGIN CERTIFICATE-----
MIIELzCCAhcCAQEwDQYJKoZIhvcNAQENBQAwXTELMAkGA1UEBhMCUEwxETAPBgNV
BAgMCE1hem92aWFuMQ8wDQYDVQQHDAZXYXJzYXcxFDASBgNVBAoMC0RhY3prbyBD
ZXJ0MRQwEgYDVQQDDAtEYWN6a28gQ2VydDAeFw0yMTAxMTMyMzQ0MjhaFw0yMjAx
MTMyMzQ0MjhaMF4xCzAJBgNVBAYTAlBMMREwDwYDVQQIDAhNYXpvdmlhbjEPMA0G
A1UEBwwGV2Fyc2F3MRowGAYDVQQKDBFOb3RlTWUgU3AuIHogby5vLjEPMA0GA1UE
AwwGTm90ZU1lMIIBIjANBgkqhkiG9w0BAQEFAAOCAQ8AMIIBCgKCAQEA41BwNvjP
yeu3bG9alE8eD40M4Irdqp0Uev6pN0CsLOGS2KB/g9zjbYUKa//3OrwR4kDZIExl
Y5Xv4uCw34Vxf6TQmqqiIC+iXS/wgNlfrpzgebasIEOW53OjtKm2A/kuMPqZh9eb
Ys6WNiKgU0KrBgbghI7E/9USYMu8MGpZ+QDQxw5bpVJF8KfpHHaSYwfbtubQR0Sr
PAum488i1SBDfwhSzXMhPBjX3PxMUfDKrvt7AhJPtAASMHez4wyr96cRqHMDVGx+
yJRJiW8Jx1Yvszkf6em3qJK8gevGjZ+WRk44mVjJuUglW4H9JeS9SfR8/rbEhxqv
cAMsz5VkOYAN4QIDAQABMA0GCSqGSIb3DQEBDQUAA4ICAQC6+3amffm6x4GqKP0n
FtCd90YmSezzUjrlH4VVaBHL+NbU4c6SzNQe6A8Fm/Svd/fubdZo1tH3tdTb648V
aYT18NlUz55jvtknva21m9l8keV9L/PAw/0H5jR+1stekxDDawgamoLbUlp7PY0g
i0PxZuMF1iiv8ppqMv/E1+wKbH96BSaIpgv/7UdegVfi+y0l4OZ/yUkV1IMy7qY2
skW28D9H/zo1OtoASAWZN7OLHYtZUYESFyMK2DMkK1hAcAaGfRxcr15gfnybtkJ2
AvJMDOLeihrc0MTZc4Vjm8pHjC0aRd5TXDb9G20mYgwuXHhmZBkPZh1LJ718iiBu
WlVV36eU9g1Kde3PdmiXBWgS60VreiXBDR4TpuTDgoYM4iCv0izryV5aT8QIargU
aqlnH+hWTrECF8Ak5URULlTFA6PrNrnO5TO9SJoEvEgbq5cYqCr7OUuWsQXBmpc/
pEVEhC+O14pu724Lx8MZJ88ebvDa7JGKVghOXaGmPkcgjvbbDNWTPgQMIblw0qGb
Il9nL+S/8FiP3gK0ijBqOR2A3rQ1gRjXkbCwVaLUfi1KlRnwLoAgqs0YX449LHbY
av8RLXvyWjPgjgkz6ven5RF2pgmhnVnPYeXXcN4Q7CkdTBYWMM6ZCeS+y/ib3WRd
HBtKiVkhYWLmcVYD8ATghJL5gg==
-----END CERTIFICATE-----
